target datalayout = "e-m:e-p270:32:32-p271:32:32-p272:64:64-i64:64-i128:128-f80:128-n8:16:32:64-S128"
target triple = "x86_64-pc-linux-gnu"

@__const.image_core_cb.names = private unnamed_addr constant [7 x ptr] [ptr @.str.16, ptr @.str.17, ptr @.str.18, ptr @.str.19, ptr @.str.20, ptr @.str.21, ptr @.str.22], align 16

; Function Attrs: nounwind uwtable
define internal void @add_to_cell(ptr noundef %0, i32 noundef %1, i32 noundef %2) #0 {
  %4 = alloca ptr, align 8
  %5 = alloca i32, align 4
  %6 = alloca i32, align 4
  store ptr %0, ptr %4, align 8, !tbaa !8
  store i32 %1, ptr %5, align 4, !tbaa !3
  store i32 %2, ptr %6, align 4, !tbaa !3
  %7 = load ptr, ptr %4, align 8, !tbaa !8
  %8 = load i32, ptr %5, align 4, !tbaa !3
  %9 = load i32, ptr %6, align 4, !tbaa !3
  call void @lv_obj_set_grid_cell(ptr noundef %7, i32 noundef 1, i32 noundef %8, i32 noundef 1, i32 noundef 1, i32 noundef %9, i32 noundef 1)
  ret void
}

; Function Attrs: nounwind uwtable
define internal void @image_core_cb(ptr noundef %0, i1 noundef zeroext %1, i32 noundef %2) #0 {
  %4 = alloca ptr, align 8
  %5 = alloca i8, align 1
  %6 = alloca i32, align 4
  %7 = alloca [7 x ptr], align 16
  %8 = alloca [7 x ptr], align 16
  %9 = alloca i32, align 4
  %10 = alloca i32, align 4
  %11 = alloca ptr, align 8
  %12 = alloca i32, align 4
  store ptr %0, ptr %4, align 8, !tbaa !8
  %13 = zext i1 %1 to i8
  store i8 %13, ptr %5, align 1, !tbaa !56
  store i32 %2, ptr %6, align 4, !tbaa !3
  call void @llvm.lifetime.start.p0(i64 56, ptr %7) #5
  call void @llvm.memcpy.p0.p0.i64(ptr align 16 %7, ptr align 16 @__const.image_core_cb.srcs, i64 56, i1 false)
  call void @llvm.lifetime.start.p0(i64 56, ptr %8) #5
  call void @llvm.memcpy.p0.p0.i64(ptr align 16 %8, ptr align 16 @__const.image_core_cb.names, i64 56, i1 false)
  call void @llvm.lifetime.start.p0(i64 4, ptr %9) #5
  %14 = load i32, ptr %6, align 4, !tbaa !3
  %15 = zext i32 %14 to i64
  %16 = load i32, ptr %6, align 4, !tbaa !3
  %17 = zext i32 %16 to i64
  %18 = sub i64 7, %17
  %19 = icmp ult i64 %18, 4
  br i1 %19, label %20, label %24

20:                                               ; preds = %3
  %21 = load i32, ptr %6, align 4, !tbaa !3
  %22 = zext i32 %21 to i64
  %23 = sub i64 7, %22
  br label %25

24:                                               ; preds = %3
  br label %25

25:                                               ; preds = %24, %20
  %26 = phi i64 [ %23, %20 ], [ 4, %24 ]
  %27 = add i64 %15, %26
  %28 = trunc i64 %27 to i32
  store i32 %28, ptr %9, align 4, !tbaa !3
  call void @llvm.lifetime.start.p0(i64 4, ptr %10) #5
  %29 = load i32, ptr %6, align 4, !tbaa !3
  store i32 %29, ptr %10, align 4, !tbaa !3
  br label %30

30:                                               ; preds = %139, %25
  %31 = load i32, ptr %10, align 4, !tbaa !3
  %32 = load i32, ptr %9, align 4, !tbaa !3
  %33 = icmp ult i32 %31, %32
  br i1 %33, label %34, label %142

34:                                               ; preds = %30
  call void @llvm.lifetime.start.p0(i64 8, ptr %11) #5
  call void @llvm.lifetime.start.p0(i64 4, ptr %12) #5
  %35 = load i32, ptr %10, align 4, !tbaa !3
  %36 = load i32, ptr %6, align 4, !tbaa !3
  %37 = sub i32 %35, %36
  store i32 %37, ptr %12, align 4, !tbaa !3
  %38 = load ptr, ptr %4, align 8, !tbaa !8
  %39 = call ptr @lv_label_create(ptr noundef %38)
  store ptr %39, ptr %11, align 8, !tbaa !8
  %40 = load ptr, ptr %11, align 8, !tbaa !8
  %41 = load i32, ptr %10, align 4, !tbaa !3
  %42 = zext i32 %41 to i64
  %43 = getelementptr inbounds nuw [7 x ptr], ptr %8, i64 0, i64 %42
  %44 = load ptr, ptr %43, align 8, !tbaa !51
  call void @lv_label_set_text(ptr noundef %40, ptr noundef %44)
  %45 = load ptr, ptr %11, align 8, !tbaa !8
  %46 = load i32, ptr %12, align 4, !tbaa !3
  %47 = mul i32 %46, 2
  call void @add_to_cell(ptr noundef %45, i32 noundef 0, i32 noundef %47)
  %48 = load ptr, ptr %4, align 8, !tbaa !8
  %49 = load i32, ptr %12, align 4, !tbaa !3
  %50 = mul i32 %49, 2
  %51 = load i8, ptr %5, align 1, !tbaa !56, !range !58, !noundef !59
  %52 = trunc i8 %51 to i1
  %53 = call ptr @image_obj_create(ptr noundef %48, i32 noundef 1, i32 noundef %50, i1 noundef zeroext %52)
  store ptr %53, ptr %11, align 8, !tbaa !8
  %54 = load ptr, ptr %11, align 8, !tbaa !8
  %55 = load i32, ptr %10, align 4, !tbaa !3
  %56 = zext i32 %55 to i64
  %57 = getelementptr inbounds nuw [7 x ptr], ptr %7, i64 0, i64 %56
  %58 = load ptr, ptr %57, align 8, !tbaa !51
  call void @lv_image_set_src(ptr noundef %54, ptr noundef %58)
  %59 = load ptr, ptr %4, align 8, !tbaa !8
  %60 = load i32, ptr %12, align 4, !tbaa !3
  %61 = mul i32 %60, 2
  %62 = load i8, ptr %5, align 1, !tbaa !56, !range !58, !noundef !59
  %63 = trunc i8 %62 to i1
  %64 = call ptr @image_obj_create(ptr noundef %59, i32 noundef 2, i32 noundef %61, i1 noundef zeroext %63)
  store ptr %64, ptr %11, align 8, !tbaa !8
  %65 = load ptr, ptr %11, align 8, !tbaa !8
  %66 = load i32, ptr %10, align 4, !tbaa !3
  %67 = zext i32 %66 to i64
  %68 = getelementptr inbounds nuw [7 x ptr], ptr %7, i64 0, i64 %67
  %69 = load ptr, ptr %68, align 8, !tbaa !51
  call void @lv_image_set_src(ptr noundef %65, ptr noundef %69)
  %70 = load ptr, ptr %11, align 8, !tbaa !8
  call void @lv_image_set_rotation(ptr noundef %70, i32 noundef 300)
  %71 = load ptr, ptr %11, align 8, !tbaa !8
  call void @lv_image_set_pivot(ptr noundef %71, i32 noundef 0, i32 noundef 0)
  %72 = load ptr, ptr %4, align 8, !tbaa !8
  %73 = load i32, ptr %12, align 4, !tbaa !3
  %74 = mul i32 %73, 2
  %75 = load i8, ptr %5, align 1, !tbaa !56, !range !58, !noundef !59
  %76 = trunc i8 %75 to i1
  %77 = call ptr @image_obj_create(ptr noundef %72, i32 noundef 3, i32 noundef %74, i1 noundef zeroext %76)
  store ptr %77, ptr %11, align 8, !tbaa !8
  %78 = load ptr, ptr %11, align 8, !tbaa !8
  %79 = load i32, ptr %10, align 4, !tbaa !3
  %80 = zext i32 %79 to i64
  %81 = getelementptr inbounds nuw [7 x ptr], ptr %7, i64 0, i64 %80
  %82 = load ptr, ptr %81, align 8, !tbaa !51
  call void @lv_image_set_src(ptr noundef %78, ptr noundef %82)
  %83 = load ptr, ptr %11, align 8, !tbaa !8
  call void @lv_image_set_scale(ptr noundef %83, i32 noundef 400)
  %84 = load ptr, ptr %11, align 8, !tbaa !8
  call void @lv_image_set_pivot(ptr noundef %84, i32 noundef 0, i32 noundef 0)
  %85 = load ptr, ptr %4, align 8, !tbaa !8
  %86 = load i32, ptr %12, align 4, !tbaa !3
  %87 = mul i32 %86, 2
  %88 = load i8, ptr %5, align 1, !tbaa !56, !range !58, !noundef !59
  %89 = trunc i8 %88 to i1
  %90 = call ptr @image_obj_create(ptr noundef %85, i32 noundef 4, i32 noundef %87, i1 noundef zeroext %89)
  store ptr %90, ptr %11, align 8, !tbaa !8
  %91 = load ptr, ptr %11, align 8, !tbaa !8
  %92 = load i32, ptr %10, align 4, !tbaa !3
  %93 = zext i32 %92 to i64
  %94 = getelementptr inbounds nuw [7 x ptr], ptr %7, i64 0, i64 %93
  %95 = load ptr, ptr %94, align 8, !tbaa !51
  call void @lv_image_set_src(ptr noundef %91, ptr noundef %95)
  %96 = load ptr, ptr %11, align 8, !tbaa !8
  call void @lv_image_set_scale_x(ptr noundef %96, i32 noundef 400)
  %97 = load ptr, ptr %11, align 8, !tbaa !8
  call void @lv_image_set_pivot(ptr noundef %97, i32 noundef 0, i32 noundef 0)
  %98 = load ptr, ptr %4, align 8, !tbaa !8
  %99 = load i32, ptr %12, align 4, !tbaa !3
  %100 = mul i32 %99, 2
  %101 = load i8, ptr %5, align 1, !tbaa !56, !range !58, !noundef !59
  %102 = trunc i8 %101 to i1
  %103 = call ptr @image_obj_create(ptr noundef %98, i32 noundef 5, i32 noundef %100, i1 noundef zeroext %102)
  store ptr %103, ptr %11, align 8, !tbaa !8
  %104 = load ptr, ptr %11, align 8, !tbaa !8
  %105 = load i32, ptr %10, align 4, !tbaa !3
  %106 = zext i32 %105 to i64
  %107 = getelementptr inbounds nuw [7 x ptr], ptr %7, i64 0, i64 %106
  %108 = load ptr, ptr %107, align 8, !tbaa !51
  call void @lv_image_set_src(ptr noundef %104, ptr noundef %108)
  %109 = load ptr, ptr %11, align 8, !tbaa !8
  call void @lv_image_set_scale_y(ptr noundef %109, i32 noundef 400)
  %110 = load ptr, ptr %11, align 8, !tbaa !8
  call void @lv_image_set_pivot(ptr noundef %110, i32 noundef 0, i32 noundef 0)
  %111 = load ptr, ptr %4, align 8, !tbaa !8
  %112 = load i32, ptr %12, align 4, !tbaa !3
  %113 = mul i32 %112, 2
  %114 = load i8, ptr %5, align 1, !tbaa !56, !range !58, !noundef !59
  %115 = trunc i8 %114 to i1
  %116 = call ptr @image_obj_create(ptr noundef %111, i32 noundef 6, i32 noundef %113, i1 noundef zeroext %115)
  store ptr %116, ptr %11, align 8, !tbaa !8
  %117 = load ptr, ptr %11, align 8, !tbaa !8
  %118 = load i32, ptr %10, align 4, !tbaa !3
  %119 = zext i32 %118 to i64
  %120 = getelementptr inbounds nuw [7 x ptr], ptr %7, i64 0, i64 %119
  %121 = load ptr, ptr %120, align 8, !tbaa !51
  call void @lv_image_set_src(ptr noundef %117, ptr noundef %121)
  %122 = load ptr, ptr %11, align 8, !tbaa !8
  call void @lv_image_set_rotation(ptr noundef %122, i32 noundef 300)
  %123 = load ptr, ptr %11, align 8, !tbaa !8
  call void @lv_image_set_scale(ptr noundef %123, i32 noundef 400)
  %124 = load ptr, ptr %11, align 8, !tbaa !8
  call void @lv_image_set_pivot(ptr noundef %124, i32 noundef 0, i32 noundef 0)
  %125 = load ptr, ptr %4, align 8, !tbaa !8
  %126 = load i32, ptr %12, align 4, !tbaa !3
  %127 = mul i32 %126, 2
  %128 = load i8, ptr %5, align 1, !tbaa !56, !range !58, !noundef !59
  %129 = trunc i8 %128 to i1
  %130 = call ptr @image_obj_create(ptr noundef %125, i32 noundef 7, i32 noundef %127, i1 noundef zeroext %129)
  store ptr %130, ptr %11, align 8, !tbaa !8
  %131 = load ptr, ptr %11, align 8, !tbaa !8
  %132 = load i32, ptr %10, align 4, !tbaa !3
  %133 = zext i32 %132 to i64
  %134 = getelementptr inbounds nuw [7 x ptr], ptr %7, i64 0, i64 %133
  %135 = load ptr, ptr %134, align 8, !tbaa !51
  call void @lv_image_set_src(ptr noundef %131, ptr noundef %135)
  %136 = load ptr, ptr %11, align 8, !tbaa !8
  call void @lv_image_set_scale_y(ptr noundef %136, i32 noundef 400)
  %137 = load ptr, ptr %11, align 8, !tbaa !8
  call void @lv_image_set_rotation(ptr noundef %137, i32 noundef 300)
  %138 = load ptr, ptr %11, align 8, !tbaa !8
  call void @lv_image_set_pivot(ptr noundef %138, i32 noundef 0, i32 noundef 0)
  call void @llvm.lifetime.end.p0(i64 4, ptr %12) #5
  call void @llvm.lifetime.end.p0(i64 8, ptr %11) #5
  br label %139

139:                                              ; preds = %34
  %140 = load i32, ptr %10, align 4, !tbaa !3
  %141 = add i32 %140, 1
  store i32 %141, ptr %10, align 4, !tbaa !3
  br label %30, !llvm.loop !60

142:                                              ; preds = %30
  call void @llvm.lifetime.end.p0(i64 4, ptr %10) #5
  call void @llvm.lifetime.end.p0(i64 4, ptr %9) #5
  call void @llvm.lifetime.end.p0(i64 56, ptr %8) #5
  call void @llvm.lifetime.end.p0(i64 56, ptr %7) #5
  ret void
}