; Function Attrs: nounwind uwtable
define internal fastcc void @image_core_cb(ptr noundef %0, i1 noundef zeroext %1, i32 noundef range(i32 0, 5) %2) unnamed_addr #0 {
.lr.ph.preheader:
  %3 = xor i32 %2, 7
  %4 = tail call i32 @llvm.umin.i32(i32 %3, i32 4)
  %5 = add nuw nsw i32 %4, %2
  %6 = zext nneg i32 %2 to i64
  %7 = zext nneg i32 %5 to i64
  br label %.lr.ph

.lr.ph:                                           ; preds = %.lr.ph.preheader, %.lr.ph
  %indvars.iv = phi i64 [ %6, %.lr.ph.preheader ], [ %indvars.iv.next, %.lr.ph ]
  %8 = tail call ptr @lv_label_create(ptr noundef %0) #6
  %9 = getelementptr inbounds nuw [7 x ptr], ptr @__const.image_core_cb.names, i64 0, i64 %indvars.iv
  %10 = load ptr, ptr %9, align 8, !tbaa !62
  tail call void @lv_label_set_text(ptr noundef %8, ptr noundef %10) #6
  %11 = trunc i64 %indvars.iv to i32
  %.tr = sub i32 %11, %2
  %12 = shl i32 %.tr, 1
  tail call void @lv_obj_set_grid_cell(ptr noundef %8, i32 noundef 1, i32 noundef 0, i32 noundef 1, i32 noundef 1, i32 noundef range(i32 -8, 21) %12, i32 noundef 1) #6
  %13 = tail call fastcc ptr @image_obj_create(ptr noundef %0, i32 noundef 1, i32 noundef %12, i1 noundef zeroext %1)
  %14 = getelementptr inbounds nuw [7 x ptr], ptr @__const.image_core_cb.srcs, i64 0, i64 %indvars.iv
  %15 = load ptr, ptr %14, align 8, !tbaa !62
  tail call void @lv_image_set_src(ptr noundef %13, ptr noundef %15) #6
  %16 = tail call fastcc ptr @image_obj_create(ptr noundef %0, i32 noundef 2, i32 noundef %12, i1 noundef zeroext %1)
  tail call void @lv_image_set_src(ptr noundef %16, ptr noundef %15) #6
  tail call void @lv_image_set_rotation(ptr noundef %16, i32 noundef 300) #6
  tail call void @lv_image_set_pivot(ptr noundef %16, i32 noundef 0, i32 noundef 0) #6
  %17 = tail call fastcc ptr @image_obj_create(ptr noundef %0, i32 noundef 3, i32 noundef %12, i1 noundef zeroext %1)
  tail call void @lv_image_set_src(ptr noundef %17, ptr noundef %15) #6
  tail call void @lv_image_set_scale(ptr noundef %17, i32 noundef 400) #6
  tail call void @lv_image_set_pivot(ptr noundef %17, i32 noundef 0, i32 noundef 0) #6
  %18 = tail call fastcc ptr @image_obj_create(ptr noundef %0, i32 noundef 4, i32 noundef %12, i1 noundef zeroext %1)
  tail call void @lv_image_set_src(ptr noundef %18, ptr noundef %15) #6
  tail call void @lv_image_set_scale_x(ptr noundef %18, i32 noundef 400) #6
  tail call void @lv_image_set_pivot(ptr noundef %18, i32 noundef 0, i32 noundef 0) #6
  %19 = tail call fastcc ptr @image_obj_create(ptr noundef %0, i32 noundef 5, i32 noundef %12, i1 noundef zeroext %1)
  tail call void @lv_image_set_src(ptr noundef %19, ptr noundef %15) #6
  tail call void @lv_image_set_scale_y(ptr noundef %19, i32 noundef 400) #6
  tail call void @lv_image_set_pivot(ptr noundef %19, i32 noundef 0, i32 noundef 0) #6
  %20 = tail call fastcc ptr @image_obj_create(ptr noundef %0, i32 noundef 6, i32 noundef %12, i1 noundef zeroext %1)
  tail call void @lv_image_set_src(ptr noundef %20, ptr noundef %15) #6
  tail call void @lv_image_set_rotation(ptr noundef %20, i32 noundef 300) #6
  tail call void @lv_image_set_scale(ptr noundef %20, i32 noundef 400) #6
  tail call void @lv_image_set_pivot(ptr noundef %20, i32 noundef 0, i32 noundef 0) #6
  %21 = tail call fastcc ptr @image_obj_create(ptr noundef %0, i32 noundef 7, i32 noundef %12, i1 noundef zeroext %1)
  tail call void @lv_image_set_src(ptr noundef %21, ptr noundef %15) #6
  tail call void @lv_image_set_scale_y(ptr noundef %21, i32 noundef 400) #6
  tail call void @lv_image_set_rotation(ptr noundef %21, i32 noundef 300) #6
  tail call void @lv_image_set_pivot(ptr noundef %21, i32 noundef 0, i32 noundef 0) #6
  %indvars.iv.next = add nuw nsw i64 %indvars.iv, 1
  %22 = icmp samesign ult i64 %indvars.iv.next, %7
  br i1 %22, label %.lr.ph, label %._crit_edge, !llvm.loop !67

._crit_edge:                                      ; preds = %.lr.ph
  ret void
}